; Function Attrs: nofree norecurse nosync nounwind memory(read, inaccessiblemem: none) uwtable
define range(i32 -2147483648, 2147483647) i32 @Abc_NodeFindFanin(ptr noundef readonly captures(none) %0, ptr noundef readnone %1) local_unnamed_addr #2 {
  %3 = getelementptr i8, ptr %0, i64 28
  %.val = load i32, ptr %3, align 4
  %4 = icmp sgt i32 %.val, 0
  br i1 %4, label %.lr.ph, label %.critedge

.lr.ph:                                           ; preds = %2
  %.val9 = load ptr, ptr %0, align 8
  %5 = getelementptr i8, ptr %0, i64 32
  %.val10 = load ptr, ptr %5, align 8
  %6 = getelementptr i8, ptr %.val9, i64 32
  %.val9.val = load ptr, ptr %6, align 8
  %7 = getelementptr i8, ptr %.val9.val, i64 8
  %.val9.val.val = load ptr, ptr %7, align 8
  %wide.trip.count = zext nneg i32 %.val to i64
  br label %8

8:                                                ; preds = %.lr.ph, %15
  %indvars.iv = phi i64 [ 0, %.lr.ph ], [ %indvars.iv.next, %15 ]
  %9 = getelementptr inbounds nuw i32, ptr %.val10, i64 %indvars.iv
  %10 = load i32, ptr %9, align 4
  %11 = sext i32 %10 to i64
  %12 = getelementptr inbounds ptr, ptr %.val9.val.val, i64 %11
  %13 = load ptr, ptr %12, align 8
  %14 = icmp eq ptr %13, %1
  br i1 %14, label %.critedge.loopexit.split.loop.exit15, label %15

15:                                               ; preds = %8
  %indvars.iv.next = add nuw nsw i64 %indvars.iv, 1
  %exitcond.not = icmp eq i64 %indvars.iv.next, %wide.trip.count
  br i1 %exitcond.not, label %.critedge, label %8, !llvm.loop !45

.critedge.loopexit.split.loop.exit15:             ; preds = %8
  %16 = trunc nuw nsw i64 %indvars.iv to i32
  br label %.critedge

.critedge:                                        ; preds = %15, %.critedge.loopexit.split.loop.exit15, %2
  %.08 = phi i32 [ -1, %2 ], [ %16, %.critedge.loopexit.split.loop.exit15 ], [ -1, %15 ]
  ret i32 %.08
}